; Function Attrs: nounwind uwtable
define dso_local ptr @PyModule_Create2(ptr noundef %0, i32 noundef %1) local_unnamed_addr #0 {
  %3 = tail call align 8 ptr @llvm.threadlocal.address.p0(ptr align 8 @_Py_tss_tstate)
  %4 = load ptr, ptr %3, align 8, !tbaa !25
  %5 = getelementptr inbounds nuw i8, ptr %4, i64 16
  %6 = load ptr, ptr %5, align 8, !tbaa !27
  %7 = tail call i32 @_PyImport_IsInitialized(ptr noundef %6) #8
  %.not = icmp eq i32 %7, 0
  br i1 %.not, label %8, label %10

8:                                                ; preds = %2
  %9 = load ptr, ptr @PyExc_SystemError, align 8, !tbaa !24
  tail call void @PyErr_SetString(ptr noundef %9, ptr noundef nonnull @.str.1) #8
  br label %12

10:                                               ; preds = %2
  %11 = tail call ptr @_PyModule_CreateInitialized(ptr noundef %0, i32 noundef %1)
  br label %12

12:                                               ; preds = %10, %8
  %.0 = phi ptr [ %11, %10 ], [ null, %8 ]
  ret ptr %.0
}